target datalayout = "e-m:e-p270:32:32-p271:32:32-p272:64:64-i64:64-i128:128-f80:128-n8:16:32:64-S128"
target triple = "x86_64-pc-linux-gnu"

%struct.Aig_Obj_t_ = type { %union.anon, ptr, ptr, i64, i32, i32, %union.anon.0 }
%union.anon = type { ptr }
%union.anon.0 = type { ptr }
%struct.Aig_Man_t_ = type { ptr, ptr, ptr, ptr, ptr, ptr, ptr, %struct.Aig_Obj_t_, i32, i32, i32, i32, i32, i32, [7 x i32], i32, ptr, i32, ptr, i32, ptr, i32, i32, i32, ptr, i32, i32, i32, i32, i32, ptr, ptr, i32, ptr, ptr, i32, ptr, ptr, i32, i32, i32, ptr, ptr, ptr, ptr, ptr, ptr, ptr, ptr, ptr, ptr, ptr, ptr, ptr, ptr, i32, ptr, ptr, ptr, ptr, i32, i64, i64, i64, ptr, ptr }
%struct.Vec_Int_t_ = type { i32, i32, ptr }

; Function Attrs: inlinehint nounwind uwtable
define internal ptr @Aig_Regular(ptr noundef %0) #3 {
  %2 = alloca ptr, align 8
  store ptr %0, ptr %2, align 8, !tbaa !27
  %3 = load ptr, ptr %2, align 8, !tbaa !27
  %4 = ptrtoint ptr %3 to i64
  %5 = and i64 %4, -2
  %6 = inttoptr i64 %5 to ptr
  ret ptr %6
}

; Function Attrs: inlinehint nounwind uwtable
define internal ptr @Aig_ObjFanin1(ptr noundef %0) #3 {
  %2 = alloca ptr, align 8
  store ptr %0, ptr %2, align 8, !tbaa !27
  %3 = load ptr, ptr %2, align 8, !tbaa !27
  %4 = getelementptr inbounds nuw %struct.Aig_Obj_t_, ptr %3, i32 0, i32 2
  %5 = load ptr, ptr %4, align 8, !tbaa !46
  %6 = call ptr @Aig_Regular(ptr noundef %5)
  ret ptr %6
}

; Function Attrs: inlinehint nounwind uwtable
define internal ptr @Aig_ObjFanin0(ptr noundef %0) #3 {
  %2 = alloca ptr, align 8
  store ptr %0, ptr %2, align 8, !tbaa !27
  %3 = load ptr, ptr %2, align 8, !tbaa !27
  %4 = getelementptr inbounds nuw %struct.Aig_Obj_t_, ptr %3, i32 0, i32 1
  %5 = load ptr, ptr %4, align 8, !tbaa !45
  %6 = call ptr @Aig_Regular(ptr noundef %5)
  ret ptr %6
}

; Function Attrs: inlinehint nounwind uwtable
define internal void @Vec_IntWriteEntry(ptr noundef %0, i32 noundef %1, i32 noundef %2) #3 {
  %4 = alloca ptr, align 8
  %5 = alloca i32, align 4
  %6 = alloca i32, align 4
  store ptr %0, ptr %4, align 8, !tbaa !10
  store i32 %1, ptr %5, align 4, !tbaa !13
  store i32 %2, ptr %6, align 4, !tbaa !13
  %7 = load i32, ptr %6, align 4, !tbaa !13
  %8 = load ptr, ptr %4, align 8, !tbaa !10
  %9 = getelementptr inbounds nuw %struct.Vec_Int_t_, ptr %8, i32 0, i32 2
  %10 = load ptr, ptr %9, align 8, !tbaa !63
  %11 = load i32, ptr %5, align 4, !tbaa !13
  %12 = sext i32 %11 to i64
  %13 = getelementptr inbounds i32, ptr %10, i64 %12
  store i32 %7, ptr %13, align 4, !tbaa !13
  ret void
}

; Function Attrs: inlinehint nounwind uwtable
define internal i32 @Aig_ObjId(ptr noundef %0) #3 {
  %2 = alloca ptr, align 8
  store ptr %0, ptr %2, align 8, !tbaa !27
  %3 = load ptr, ptr %2, align 8, !tbaa !27
  %4 = getelementptr inbounds nuw %struct.Aig_Obj_t_, ptr %3, i32 0, i32 5
  %5 = load i32, ptr %4, align 4, !tbaa !64
  ret i32 %5
}

; Function Attrs: inlinehint nounwind uwtable
define internal i32 @Aig_ObjIsCi(ptr noundef %0) #3 {
  %2 = alloca ptr, align 8
  store ptr %0, ptr %2, align 8, !tbaa !27
  %3 = load ptr, ptr %2, align 8, !tbaa !27
  %4 = getelementptr inbounds nuw %struct.Aig_Obj_t_, ptr %3, i32 0, i32 3
  %5 = load i64, ptr %4, align 8
  %6 = and i64 %5, 7
  %7 = trunc i64 %6 to i32
  %8 = icmp eq i32 %7, 2
  %9 = zext i1 %8 to i32
  ret i32 %9
}

; Function Attrs: inlinehint nounwind uwtable
define internal void @Aig_ObjSetTravIdCurrent(ptr noundef %0, ptr noundef %1) #3 {
  %3 = alloca ptr, align 8
  %4 = alloca ptr, align 8
  store ptr %0, ptr %3, align 8, !tbaa !8
  store ptr %1, ptr %4, align 8, !tbaa !27
  %5 = load ptr, ptr %3, align 8, !tbaa !8
  %6 = getelementptr inbounds nuw %struct.Aig_Man_t_, ptr %5, i32 0, i32 38
  %7 = load i32, ptr %6, align 8, !tbaa !67
  %8 = load ptr, ptr %4, align 8, !tbaa !27
  %9 = getelementptr inbounds nuw %struct.Aig_Obj_t_, ptr %8, i32 0, i32 4
  store i32 %7, ptr %9, align 8, !tbaa !66
  ret void
}

; Function Attrs: inlinehint nounwind uwtable
define internal i32 @Aig_ObjIsTravIdCurrent(ptr noundef %0, ptr noundef %1) #3 {
  %3 = alloca ptr, align 8
  %4 = alloca ptr, align 8
  store ptr %0, ptr %3, align 8, !tbaa !8
  store ptr %1, ptr %4, align 8, !tbaa !27
  %5 = load ptr, ptr %4, align 8, !tbaa !27
  %6 = getelementptr inbounds nuw %struct.Aig_Obj_t_, ptr %5, i32 0, i32 4
  %7 = load i32, ptr %6, align 8, !tbaa !66
  %8 = load ptr, ptr %3, align 8, !tbaa !8
  %9 = getelementptr inbounds nuw %struct.Aig_Man_t_, ptr %8, i32 0, i32 38
  %10 = load i32, ptr %9, align 8, !tbaa !67
  %11 = icmp eq i32 %7, %10
  %12 = zext i1 %11 to i32
  ret i32 %12
}

; Function Attrs: nounwind uwtable
define void @Llb_Nonlin4CreateOrder_rec(ptr noundef %0, ptr noundef %1, ptr noundef %2, ptr noundef %3) #0 {
  %5 = alloca ptr, align 8
  %6 = alloca ptr, align 8
  %7 = alloca ptr, align 8
  %8 = alloca ptr, align 8
  %9 = alloca ptr, align 8
  %10 = alloca ptr, align 8
  %11 = alloca i32, align 4
  store ptr %0, ptr %5, align 8, !tbaa !8
  store ptr %1, ptr %6, align 8, !tbaa !27
  store ptr %2, ptr %7, align 8, !tbaa !10
  store ptr %3, ptr %8, align 8, !tbaa !65
  call void @llvm.lifetime.start.p0(i64 8, ptr %9) #11
  call void @llvm.lifetime.start.p0(i64 8, ptr %10) #11
  %12 = load ptr, ptr %5, align 8, !tbaa !8
  %13 = load ptr, ptr %6, align 8, !tbaa !27
  %14 = call i32 @Aig_ObjIsTravIdCurrent(ptr noundef %12, ptr noundef %13)
  %15 = icmp ne i32 %14, 0
  br i1 %15, label %16, label %17

16:                                               ; preds = %4
  store i32 1, ptr %11, align 4
  br label %82

17:                                               ; preds = %4
  %18 = load ptr, ptr %5, align 8, !tbaa !8
  %19 = load ptr, ptr %6, align 8, !tbaa !27
  call void @Aig_ObjSetTravIdCurrent(ptr noundef %18, ptr noundef %19)
  %20 = load ptr, ptr %6, align 8, !tbaa !27
  %21 = call i32 @Aig_ObjIsCi(ptr noundef %20)
  %22 = icmp ne i32 %21, 0
  br i1 %22, label %23, label %30

23:                                               ; preds = %17
  %24 = load ptr, ptr %7, align 8, !tbaa !10
  %25 = load ptr, ptr %6, align 8, !tbaa !27
  %26 = call i32 @Aig_ObjId(ptr noundef %25)
  %27 = load ptr, ptr %8, align 8, !tbaa !65
  %28 = load i32, ptr %27, align 4, !tbaa !13
  %29 = add nsw i32 %28, 1
  store i32 %29, ptr %27, align 4, !tbaa !13
  call void @Vec_IntWriteEntry(ptr noundef %24, i32 noundef %26, i32 noundef %28)
  store i32 1, ptr %11, align 4
  br label %82

30:                                               ; preds = %17
  %31 = load ptr, ptr %6, align 8, !tbaa !27
  %32 = call ptr @Aig_ObjFanin0(ptr noundef %31)
  store ptr %32, ptr %9, align 8, !tbaa !27
  %33 = load ptr, ptr %6, align 8, !tbaa !27
  %34 = call ptr @Aig_ObjFanin1(ptr noundef %33)
  store ptr %34, ptr %10, align 8, !tbaa !27
  %35 = load ptr, ptr %9, align 8, !tbaa !27
  %36 = getelementptr inbounds nuw %struct.Aig_Obj_t_, ptr %35, i32 0, i32 3
  %37 = load i64, ptr %36, align 8
  %38 = lshr i64 %37, 32
  %39 = and i64 %38, 16777215
  %40 = trunc i64 %39 to i32
  %41 = load ptr, ptr %10, align 8, !tbaa !27
  %42 = getelementptr inbounds nuw %struct.Aig_Obj_t_, ptr %41, i32 0, i32 3
  %43 = load i64, ptr %42, align 8
  %44 = lshr i64 %43, 32
  %45 = and i64 %44, 16777215
  %46 = trunc i64 %45 to i32
  %47 = icmp sgt i32 %40, %46
  br i1 %47, label %48, label %57

48:                                               ; preds = %30
  %49 = load ptr, ptr %5, align 8, !tbaa !8
  %50 = load ptr, ptr %9, align 8, !tbaa !27
  %51 = load ptr, ptr %7, align 8, !tbaa !10
  %52 = load ptr, ptr %8, align 8, !tbaa !65
  call void @Llb_Nonlin4CreateOrder_rec(ptr noundef %49, ptr noundef %50, ptr noundef %51, ptr noundef %52)
  %53 = load ptr, ptr %5, align 8, !tbaa !8
  %54 = load ptr, ptr %10, align 8, !tbaa !27
  %55 = load ptr, ptr %7, align 8, !tbaa !10
  %56 = load ptr, ptr %8, align 8, !tbaa !65
  call void @Llb_Nonlin4CreateOrder_rec(ptr noundef %53, ptr noundef %54, ptr noundef %55, ptr noundef %56)
  br label %66

57:                                               ; preds = %30
  %58 = load ptr, ptr %5, align 8, !tbaa !8
  %59 = load ptr, ptr %10, align 8, !tbaa !27
  %60 = load ptr, ptr %7, align 8, !tbaa !10
  %61 = load ptr, ptr %8, align 8, !tbaa !65
  call void @Llb_Nonlin4CreateOrder_rec(ptr noundef %58, ptr noundef %59, ptr noundef %60, ptr noundef %61)
  %62 = load ptr, ptr %5, align 8, !tbaa !8
  %63 = load ptr, ptr %9, align 8, !tbaa !27
  %64 = load ptr, ptr %7, align 8, !tbaa !10
  %65 = load ptr, ptr %8, align 8, !tbaa !65
  call void @Llb_Nonlin4CreateOrder_rec(ptr noundef %62, ptr noundef %63, ptr noundef %64, ptr noundef %65)
  br label %66

66:                                               ; preds = %57, %48
  %67 = load ptr, ptr %6, align 8, !tbaa !27
  %68 = getelementptr inbounds nuw %struct.Aig_Obj_t_, ptr %67, i32 0, i32 3
  %69 = load i64, ptr %68, align 8
  %70 = lshr i64 %69, 4
  %71 = and i64 %70, 1
  %72 = trunc i64 %71 to i32
  %73 = icmp ne i32 %72, 0
  br i1 %73, label %74, label %81

74:                                               ; preds = %66
  %75 = load ptr, ptr %7, align 8, !tbaa !10
  %76 = load ptr, ptr %6, align 8, !tbaa !27
  %77 = call i32 @Aig_ObjId(ptr noundef %76)
  %78 = load ptr, ptr %8, align 8, !tbaa !65
  %79 = load i32, ptr %78, align 4, !tbaa !13
  %80 = add nsw i32 %79, 1
  store i32 %80, ptr %78, align 4, !tbaa !13
  call void @Vec_IntWriteEntry(ptr noundef %75, i32 noundef %77, i32 noundef %79)
  br label %81

81:                                               ; preds = %74, %66
  store i32 0, ptr %11, align 4
  br label %82

82:                                               ; preds = %81, %23, %16
  call void @llvm.lifetime.end.p0(i64 8, ptr %10) #11
  call void @llvm.lifetime.end.p0(i64 8, ptr %9) #11
  %83 = load i32, ptr %11, align 4
  switch i32 %83, label %85 [
    i32 0, label %84
    i32 1, label %84
  ]

84:                                               ; preds = %82, %82
  ret void

85:                                               ; preds = %82
  unreachable
}