; Function Attrs: nofree nosync nounwind memory(readwrite, inaccessiblemem: none) uwtable
define void @Llb_Nonlin4CreateOrder_rec(ptr noundef %0, ptr noundef captures(none) %1, ptr noundef %2, ptr noundef %3) local_unnamed_addr #4 {
  %5 = getelementptr i8, ptr %0, i64 312
  %.val39 = load i32, ptr %5, align 8, !tbaa !58
  %6 = getelementptr i8, ptr %1, i64 32
  %.val40 = load i32, ptr %6, align 8, !tbaa !59
  %.not = icmp eq i32 %.val40, %.val39
  br i1 %.not, label %38, label %7

7:                                                ; preds = %4
  store i32 %.val39, ptr %6, align 8, !tbaa !59
  %8 = getelementptr i8, ptr %1, i64 24
  %.val42 = load i64, ptr %8, align 8
  %9 = and i64 %.val42, 7
  %.not43 = icmp eq i64 %9, 2
  br i1 %.not43, label %.sink.split, label %10

10:                                               ; preds = %7
  %11 = getelementptr i8, ptr %1, i64 8
  %.val35 = load ptr, ptr %11, align 8, !tbaa !35
  %12 = ptrtoint ptr %.val35 to i64
  %13 = and i64 %12, -2
  %14 = inttoptr i64 %13 to ptr
  %15 = getelementptr i8, ptr %1, i64 16
  %.val36 = load ptr, ptr %15, align 8, !tbaa !36
  %16 = ptrtoint ptr %.val36 to i64
  %17 = and i64 %16, -2
  %18 = inttoptr i64 %17 to ptr
  %19 = getelementptr inbounds nuw i8, ptr %14, i64 24
  %20 = load i64, ptr %19, align 8
  %21 = lshr i64 %20, 32
  %22 = trunc nuw i64 %21 to i32
  %23 = and i32 %22, 16777215
  %24 = getelementptr inbounds nuw i8, ptr %18, i64 24
  %25 = load i64, ptr %24, align 8
  %26 = lshr i64 %25, 32
  %27 = trunc nuw i64 %26 to i32
  %28 = and i32 %27, 16777215
  %29 = icmp samesign ugt i32 %23, %28
  %. = select i1 %29, ptr %14, ptr %18
  %.52 = select i1 %29, ptr %18, ptr %14
  tail call void @Llb_Nonlin4CreateOrder_rec(ptr noundef nonnull %0, ptr noundef nonnull %., ptr noundef %2, ptr noundef %3)
  tail call void @Llb_Nonlin4CreateOrder_rec(ptr noundef nonnull %0, ptr noundef nonnull %.52, ptr noundef %2, ptr noundef %3)
  %30 = load i64, ptr %8, align 8
  %31 = and i64 %30, 16
  %.not33 = icmp eq i64 %31, 0
  br i1 %.not33, label %38, label %.sink.split

.sink.split:                                      ; preds = %10, %7
  %32 = getelementptr i8, ptr %1, i64 36
  %.val = load i32, ptr %32, align 4, !tbaa !29
  %33 = load i32, ptr %3, align 4, !tbaa !30
  %34 = add nsw i32 %33, 1
  store i32 %34, ptr %3, align 4, !tbaa !30
  %35 = getelementptr i8, ptr %2, i64 8
  %.val37 = load ptr, ptr %35, align 8, !tbaa !27
  %36 = sext i32 %.val to i64
  %37 = getelementptr inbounds i32, ptr %.val37, i64 %36
  store i32 %33, ptr %37, align 4, !tbaa !30
  br label %38

38:                                               ; preds = %.sink.split, %10, %4
  ret void
}